; Function Attrs: nounwind uwtable
define dso_local void @get_typlenbyvalalign(i32 noundef %0, ptr noundef writeonly captures(none) %1, ptr noundef writeonly captures(none) %2, ptr noundef writeonly captures(none) %3) local_unnamed_addr #0 {
  %5 = zext i32 %0 to i64
  %6 = tail call ptr @SearchSysCache1(i32 noundef 82, i64 noundef %5) #8
  %.not = icmp eq ptr %6, null
  br i1 %.not, label %7, label %10

7:                                                ; preds = %4
  %8 = tail call zeroext i1 @errstart_cold(i32 noundef 21, ptr noundef null) #9
  tail call void @llvm.assume(i1 %8)
  %9 = tail call i32 (ptr, ...) @errmsg_internal(ptr noundef nonnull @.str.13, i32 noundef %0) #8
  tail call void @errfinish(ptr noundef nonnull @.str.1, i32 noundef 2306, ptr noundef nonnull @__func__.get_typlenbyvalalign) #8
  unreachable

10:                                               ; preds = %4
  %11 = getelementptr i8, ptr %6, i64 16
  %.val = load ptr, ptr %11, align 8
  %12 = getelementptr inbounds nuw i8, ptr %.val, i64 22
  %13 = load i8, ptr %12, align 2
  %14 = zext i8 %13 to i64
  %15 = getelementptr inbounds nuw i8, ptr %.val, i64 %14
  %16 = getelementptr inbounds nuw i8, ptr %15, i64 76
  %17 = load i16, ptr %16, align 4
  store i16 %17, ptr %1, align 2
  %18 = getelementptr inbounds nuw i8, ptr %15, i64 78
  %19 = load i8, ptr %18, align 2, !range !14, !noundef !15
  store i8 %19, ptr %2, align 1
  %20 = getelementptr inbounds nuw i8, ptr %15, i64 128
  %21 = load i8, ptr %20, align 4
  store i8 %21, ptr %3, align 1
  tail call void @ReleaseSysCache(ptr noundef nonnull %6) #8
  ret void
}